; ModuleID = '28/1475.c'
source_filename = "28/1475.c"
target datalayout = "e-m:e-p270:32:32-p271:32:32-p272:64:64-i64:64-f80:128-n8:16:32:64-S128"
target triple = "x86_64-pc-linux-gnu"

@.str = private unnamed_addr constant [3 x i8] c"%d\00", align 1
@.str.1 = private unnamed_addr constant [4 x i8] c",%d\00", align 1

; Function Attrs: noinline nounwind uwtable
define dso_local i32 @main() #0 {
  %1 = alloca i32, align 4
  %2 = alloca [10000 x i8], align 16
  %3 = alloca [300 x [100 x i8]], align 16
  %4 = alloca i32, align 4
  %5 = alloca i32, align 4
  %6 = alloca i32, align 4
  %7 = alloca i32, align 4
  %8 = alloca i32, align 4
  %9 = alloca i32, align 4
  %10 = alloca [300 x i32], align 16
  store i32 0, i32* %1, align 4
  store i32 0, i32* %7, align 4
  store i32 0, i32* %8, align 4
  store i32 0, i32* %9, align 4
  %11 = getelementptr inbounds [10000 x i8], [10000 x i8]* %2, i64 0, i64 0
  %12 = call i32 (i8*, ...) bitcast (i32 (...)* @gets to i32 (i8*, ...)*)(i8* %11)
  %13 = getelementptr inbounds [10000 x i8], [10000 x i8]* %2, i64 0, i64 0
  %14 = call i64 @strlen(i8* %13) #3
  %15 = trunc i64 %14 to i32
  store i32 %15, i32* %5, align 4
  store i32 0, i32* %4, align 4
  br label %16

16:                                               ; preds = %58, %0
  %17 = load i32, i32* %4, align 4
  %18 = load i32, i32* %5, align 4
  %19 = icmp slt i32 %17, %18
  br i1 %19, label %20, label %61

20:                                               ; preds = %16
  %21 = load i32, i32* %4, align 4
  %22 = sext i32 %21 to i64
  %23 = getelementptr inbounds [10000 x i8], [10000 x i8]* %2, i64 0, i64 %22
  %24 = load i8, i8* %23, align 1
  %25 = sext i8 %24 to i32
  %26 = icmp ne i32 %25, 32
  br i1 %26, label %27, label %40

27:                                               ; preds = %20
  %28 = load i32, i32* %4, align 4
  %29 = sext i32 %28 to i64
  %30 = getelementptr inbounds [10000 x i8], [10000 x i8]* %2, i64 0, i64 %29
  %31 = load i8, i8* %30, align 1
  %32 = load i32, i32* %7, align 4
  %33 = sext i32 %32 to i64
  %34 = getelementptr inbounds [300 x [100 x i8]], [300 x [100 x i8]]* %3, i64 0, i64 %33
  %35 = load i32, i32* %8, align 4
  %36 = sext i32 %35 to i64
  %37 = getelementptr inbounds [100 x i8], [100 x i8]* %34, i64 0, i64 %36
  store i8 %31, i8* %37, align 1
  %38 = load i32, i32* %8, align 4
  %39 = add nsw i32 %38, 1
  store i32 %39, i32* %8, align 4
  br label %57

40:                                               ; preds = %20
  %41 = load i32, i32* %4, align 4
  %42 = sext i32 %41 to i64
  %43 = getelementptr inbounds [10000 x i8], [10000 x i8]* %2, i64 0, i64 %42
  %44 = load i8, i8* %43, align 1
  %45 = sext i8 %44 to i32
  %46 = icmp eq i32 %45, 32
  br i1 %46, label %47, label %56

47:                                               ; preds = %40
  %48 = load i32, i32* %7, align 4
  %49 = sext i32 %48 to i64
  %50 = getelementptr inbounds [300 x [100 x i8]], [300 x [100 x i8]]* %3, i64 0, i64 %49
  %51 = load i32, i32* %8, align 4
  %52 = sext i32 %51 to i64
  %53 = getelementptr inbounds [100 x i8], [100 x i8]* %50, i64 0, i64 %52
  store i8 0, i8* %53, align 1
  %54 = load i32, i32* %7, align 4
  %55 = add nsw i32 %54, 1
  store i32 %55, i32* %7, align 4
  store i32 0, i32* %8, align 4
  br label %56

56:                                               ; preds = %47, %40
  br label %57

57:                                               ; preds = %56, %27
  br label %58

58:                                               ; preds = %57
  %59 = load i32, i32* %4, align 4
  %60 = add nsw i32 %59, 1
  store i32 %60, i32* %4, align 4
  br label %16

61:                                               ; preds = %16
  store i32 0, i32* %9, align 4
  store i32 0, i32* %6, align 4
  br label %62

62:                                               ; preds = %109, %61
  %63 = load i32, i32* %6, align 4
  %64 = load i32, i32* %7, align 4
  %65 = add nsw i32 %64, 1
  %66 = icmp slt i32 %63, %65
  br i1 %66, label %67, label %112

67:                                               ; preds = %62
  %68 = load i32, i32* %6, align 4
  %69 = sext i32 %68 to i64
  %70 = getelementptr inbounds [300 x [100 x i8]], [300 x [100 x i8]]* %3, i64 0, i64 %69
  %71 = getelementptr inbounds [100 x i8], [100 x i8]* %70, i64 0, i64 0
  %72 = call i64 @strlen(i8* %71) #3
  %73 = trunc i64 %72 to i32
  %74 = load i32, i32* %6, align 4
  %75 = sext i32 %74 to i64
  %76 = getelementptr inbounds [300 x i32], [300 x i32]* %10, i64 0, i64 %75
  store i32 %73, i32* %76, align 4
  %77 = load i32, i32* %6, align 4
  %78 = sext i32 %77 to i64
  %79 = getelementptr inbounds [300 x i32], [300 x i32]* %10, i64 0, i64 %78
  %80 = load i32, i32* %79, align 4
  %81 = icmp ne i32 %80, 0
  br i1 %81, label %82, label %108

82:                                               ; preds = %67
  %83 = load i32, i32* %6, align 4
  %84 = icmp eq i32 %83, 0
  br i1 %84, label %85, label %91

85:                                               ; preds = %82
  %86 = load i32, i32* %6, align 4
  %87 = sext i32 %86 to i64
  %88 = getelementptr inbounds [300 x i32], [300 x i32]* %10, i64 0, i64 %87
  %89 = load i32, i32* %88, align 4
  %90 = call i32 (i8*, ...) @printf(i8* getelementptr inbounds ([3 x i8], [3 x i8]* @.str, i64 0, i64 0), i32 %89)
  store i32 1, i32* %9, align 4
  br label %107

91:                                               ; preds = %82
  %92 = load i32, i32* %9, align 4
  %93 = icmp eq i32 %92, 0
  br i1 %93, label %94, label %100

94:                                               ; preds = %91
  %95 = load i32, i32* %6, align 4
  %96 = sext i32 %95 to i64
  %97 = getelementptr inbounds [300 x i32], [300 x i32]* %10, i64 0, i64 %96
  %98 = load i32, i32* %97, align 4
  %99 = call i32 (i8*, ...) @printf(i8* getelementptr inbounds ([3 x i8], [3 x i8]* @.str, i64 0, i64 0), i32 %98)
  store i32 1, i32* %9, align 4
  br label %106

100:                                              ; preds = %91
  %101 = load i32, i32* %6, align 4
  %102 = sext i32 %101 to i64
  %103 = getelementptr inbounds [300 x i32], [300 x i32]* %10, i64 0, i64 %102
  %104 = load i32, i32* %103, align 4
  %105 = call i32 (i8*, ...) @printf(i8* getelementptr inbounds ([4 x i8], [4 x i8]* @.str.1, i64 0, i64 0), i32 %104)
  br label %106

106:                                              ; preds = %100, %94
  br label %107

107:                                              ; preds = %106, %85
  br label %108

108:                                              ; preds = %107, %67
  br label %109

109:                                              ; preds = %108
  %110 = load i32, i32* %6, align 4
  %111 = add nsw i32 %110, 1
  store i32 %111, i32* %6, align 4
  br label %62

112:                                              ; preds = %62
  ret i32 0
}

declare dso_local i32 @gets(...) #1

; Function Attrs: nounwind readonly
declare dso_local i64 @strlen(i8*) #2

declare dso_local i32 @printf(i8*, ...) #1


!llvm.module.flags = !{!0}
!llvm.ident = !{!1}

!0 = !{i32 1, !"wchar_size", i32 4}
!1 = !{!"clang version 10.0.0-4ubuntu1 "}
