; ModuleID = 'source-C-CXX/27/1475.c'
source_filename = "source-C-CXX/27/1475.c"
target datalayout = "e-m:e-p270:32:32-p271:32:32-p272:64:64-i64:64-f80:128-n8:16:32:64-S128"
target triple = "x86_64-pc-linux-gnu"

@.str = private unnamed_addr constant [3 x i8] c"%d\00", align 1
@.str.1 = private unnamed_addr constant [4 x i8] c",%d\00", align 1

; Function Attrs: nounwind sspstrong uwtable
define dso_local i32 @main() local_unnamed_addr #0 {
  %1 = alloca [10000 x i8], align 16
  %2 = alloca [300 x [100 x i8]], align 16
  %3 = getelementptr inbounds [10000 x i8], [10000 x i8]* %1, i64 0, i64 0
  call void @llvm.lifetime.start.p0i8(i64 10000, i8* nonnull %3) #5
  %4 = getelementptr inbounds [300 x [100 x i8]], [300 x [100 x i8]]* %2, i64 0, i64 0, i64 0
  call void @llvm.lifetime.start.p0i8(i64 30000, i8* nonnull %4) #5
  %5 = call i32 (i8*, ...) bitcast (i32 (...)* @gets to i32 (i8*, ...)*)(i8* nonnull %3) #5
  %6 = call i64 @strlen(i8* noundef nonnull %3) #6
  %7 = trunc i64 %6 to i32
  %8 = icmp sgt i32 %7, 0
  br i1 %8, label %9, label %13

9:                                                ; preds = %0
  %10 = and i64 %6, 4294967295
  br label %25

11:                                               ; preds = %39
  %12 = icmp slt i32 %40, 0
  br i1 %12, label %59, label %13

13:                                               ; preds = %0, %11
  %14 = phi i32 [ %40, %11 ], [ 0, %0 ]
  %15 = add nuw i32 %14, 1
  %16 = zext i32 %15 to i64
  %17 = call i64 @strlen(i8* noundef nonnull %4) #6
  %18 = trunc i64 %17 to i32
  %19 = icmp eq i32 %18, 0
  br i1 %19, label %22, label %20

20:                                               ; preds = %13
  %21 = call i32 (i8*, ...) @printf(i8* nonnull dereferenceable(1) getelementptr inbounds ([3 x i8], [3 x i8]* @.str, i64 0, i64 0), i32 %18)
  br label %22

22:                                               ; preds = %20, %13
  %23 = phi i32 [ 1, %20 ], [ 0, %13 ]
  %24 = icmp eq i32 %14, 0
  br i1 %24, label %59, label %44

25:                                               ; preds = %9, %39
  %26 = phi i64 [ 0, %9 ], [ %42, %39 ]
  %27 = phi i32 [ 0, %9 ], [ %41, %39 ]
  %28 = phi i32 [ 0, %9 ], [ %40, %39 ]
  %29 = getelementptr inbounds [10000 x i8], [10000 x i8]* %1, i64 0, i64 %26
  %30 = load i8, i8* %29, align 1, !tbaa !5
  %31 = icmp eq i8 %30, 32
  %32 = sext i32 %28 to i64
  %33 = sext i32 %27 to i64
  %34 = getelementptr inbounds [300 x [100 x i8]], [300 x [100 x i8]]* %2, i64 0, i64 %32, i64 %33
  br i1 %31, label %37, label %35

35:                                               ; preds = %25
  store i8 %30, i8* %34, align 1, !tbaa !5
  %36 = add nsw i32 %27, 1
  br label %39

37:                                               ; preds = %25
  store i8 0, i8* %34, align 1, !tbaa !5
  %38 = add nsw i32 %28, 1
  br label %39

39:                                               ; preds = %35, %37
  %40 = phi i32 [ %28, %35 ], [ %38, %37 ]
  %41 = phi i32 [ %36, %35 ], [ 0, %37 ]
  %42 = add nuw nsw i64 %26, 1
  %43 = icmp eq i64 %42, %10
  br i1 %43, label %11, label %25, !llvm.loop !8

44:                                               ; preds = %22, %55
  %45 = phi i64 [ %57, %55 ], [ 1, %22 ]
  %46 = phi i32 [ %56, %55 ], [ %23, %22 ]
  %47 = getelementptr inbounds [300 x [100 x i8]], [300 x [100 x i8]]* %2, i64 0, i64 %45, i64 0
  %48 = call i64 @strlen(i8* noundef nonnull %47) #6
  %49 = trunc i64 %48 to i32
  %50 = icmp eq i32 %49, 0
  br i1 %50, label %55, label %51

51:                                               ; preds = %44
  %52 = icmp eq i32 %46, 0
  %53 = select i1 %52, i8* getelementptr inbounds ([3 x i8], [3 x i8]* @.str, i64 0, i64 0), i8* getelementptr inbounds ([4 x i8], [4 x i8]* @.str.1, i64 0, i64 0)
  %54 = call i32 (i8*, ...) @printf(i8* nonnull dereferenceable(1) %53, i32 %49)
  br label %55

55:                                               ; preds = %51, %44
  %56 = phi i32 [ %46, %44 ], [ 1, %51 ]
  %57 = add nuw nsw i64 %45, 1
  %58 = icmp eq i64 %57, %16
  br i1 %58, label %59, label %44, !llvm.loop !10

59:                                               ; preds = %55, %22, %11
  call void @llvm.lifetime.end.p0i8(i64 30000, i8* nonnull %4) #5
  call void @llvm.lifetime.end.p0i8(i64 10000, i8* nonnull %3) #5
  ret i32 0
}

; Function Attrs: argmemonly mustprogress nofree nosync nounwind willreturn
declare void @llvm.lifetime.start.p0i8(i64 immarg, i8* nocapture) #1

declare i32 @gets(...) local_unnamed_addr #2

; Function Attrs: argmemonly mustprogress nofree nounwind readonly willreturn
declare i64 @strlen(i8* nocapture) local_unnamed_addr #3

; Function Attrs: nofree nounwind
declare noundef i32 @printf(i8* nocapture noundef readonly, ...) local_unnamed_addr #4

; Function Attrs: argmemonly mustprogress nofree nosync nounwind willreturn
declare void @llvm.lifetime.end.p0i8(i64 immarg, i8* nocapture) #1


!llvm.module.flags = !{!0, !1, !2, !3}
!llvm.ident = !{!4}

!0 = !{i32 1, !"wchar_size", i32 4}
!1 = !{i32 7, !"PIC Level", i32 2}
!2 = !{i32 7, !"PIE Level", i32 2}
!3 = !{i32 7, !"uwtable", i32 1}
!4 = !{!"clang version 13.0.0"}
!5 = !{!6, !6, i64 0}
!6 = !{!"omnipotent char", !7, i64 0}
!7 = !{!"Simple C/C++ TBAA"}
!8 = distinct !{!8, !9}
!9 = !{!"llvm.loop.mustprogress"}
!10 = distinct !{!10, !9, !11}
!11 = !{!"llvm.loop.peeled.count", i32 1}
